; Function Attrs: nounwind uwtable
define range(i32 0, 2) i32 @tls13_save_handshake_digest_for_pha(ptr noundef %0) local_unnamed_addr #0 {
  %2 = getelementptr inbounds nuw i8, ptr %0, i64 3016
  %3 = load ptr, ptr %2, align 8, !tbaa !173
  %4 = icmp eq ptr %3, null
  br i1 %4, label %5, label %17

5:                                                ; preds = %1
  %6 = tail call i32 @ssl3_digest_cached_records(ptr noundef nonnull %0, i32 noundef 1) #11
  %.not = icmp eq i32 %6, 0
  br i1 %.not, label %17, label %7

7:                                                ; preds = %5
  %8 = tail call ptr @EVP_MD_CTX_new() #11
  store ptr %8, ptr %2, align 8, !tbaa !173
  %9 = icmp eq ptr %8, null
  br i1 %9, label %10, label %11

10:                                               ; preds = %7
  tail call void @ERR_new() #11
  tail call void @ERR_set_debug(ptr noundef nonnull @.str, i32 noundef 2805, ptr noundef nonnull @__func__.tls13_save_handshake_digest_for_pha) #11
  tail call void (ptr, i32, i32, ptr, ...) @ossl_statem_fatal(ptr noundef nonnull %0, i32 noundef 80, i32 noundef 786691, ptr noundef null) #11
  br label %17

11:                                               ; preds = %7
  %12 = getelementptr inbounds nuw i8, ptr %0, i64 432
  %13 = load ptr, ptr %12, align 8, !tbaa !174
  %14 = tail call i32 @EVP_MD_CTX_copy_ex(ptr noundef nonnull %8, ptr noundef %13) #11
  %.not11 = icmp eq i32 %14, 0
  br i1 %.not11, label %15, label %17

15:                                               ; preds = %11
  tail call void @ERR_new() #11
  tail call void @ERR_set_debug(ptr noundef nonnull @.str, i32 noundef 2810, ptr noundef nonnull @__func__.tls13_save_handshake_digest_for_pha) #11
  tail call void (ptr, i32, i32, ptr, ...) @ossl_statem_fatal(ptr noundef nonnull %0, i32 noundef 80, i32 noundef 786691, ptr noundef null) #11
  %16 = load ptr, ptr %2, align 8, !tbaa !173
  tail call void @EVP_MD_CTX_free(ptr noundef %16) #11
  store ptr null, ptr %2, align 8, !tbaa !173
  br label %17

17:                                               ; preds = %1, %11, %5, %15, %10
  %.0 = phi i32 [ 0, %10 ], [ 0, %15 ], [ 0, %5 ], [ 1, %11 ], [ 1, %1 ]
  ret i32 %.0
}